; Function Attrs: nofree nounwind uwtable
define internal fastcc void @gif_size(ptr noundef captures(none) initializes((72, 76)) %0) unnamed_addr #5 {
  %2 = getelementptr inbounds nuw i8, ptr %0, i64 72
  store i32 0, ptr %2, align 8
  %3 = getelementptr inbounds nuw i8, ptr %0, i64 32
  %4 = load ptr, ptr %3, align 8
  %5 = tail call i32 @fseek(ptr noundef %4, i64 noundef 6, i32 noundef 0)
  %6 = load ptr, ptr %3, align 8
  br label %7

7:                                                ; preds = %10, %1
  %.015.i = phi i64 [ 0, %1 ], [ %14, %10 ]
  %.01114.i = phi i32 [ 0, %1 ], [ %13, %10 ]
  %8 = tail call i32 @fgetc(ptr noundef %6)
  %9 = tail call i32 @feof(ptr noundef %6) #21
  %.not.i = icmp eq i32 %9, 0
  br i1 %.not.i, label %10, label %get_int_lsb_first.exit.thread

10:                                               ; preds = %7
  %.0.tr.i = trunc i64 %.015.i to i32
  %11 = shl i32 %.0.tr.i, 3
  %12 = shl i32 %8, %11
  %13 = or i32 %12, %.01114.i
  %14 = add nuw nsw i64 %.015.i, 1
  %exitcond.not.i = icmp eq i64 %14, 2
  br i1 %exitcond.not.i, label %15, label %7

15:                                               ; preds = %10
  %16 = icmp slt i32 %13, 0
  br i1 %16, label %get_int_lsb_first.exit.thread, label %get_int_lsb_first.exit

get_int_lsb_first.exit:                           ; preds = %15
  %17 = load ptr, ptr %3, align 8
  br label %18

18:                                               ; preds = %21, %get_int_lsb_first.exit
  %.015.i6 = phi i64 [ 0, %get_int_lsb_first.exit ], [ %25, %21 ]
  %.01114.i7 = phi i32 [ 0, %get_int_lsb_first.exit ], [ %24, %21 ]
  %19 = tail call i32 @fgetc(ptr noundef %17)
  %20 = tail call i32 @feof(ptr noundef %17) #21
  %.not.i8 = icmp eq i32 %20, 0
  br i1 %.not.i8, label %21, label %get_int_lsb_first.exit.thread

21:                                               ; preds = %18
  %.0.tr.i10 = trunc i64 %.015.i6 to i32
  %22 = shl i32 %.0.tr.i10, 3
  %23 = shl i32 %19, %22
  %24 = or i32 %23, %.01114.i7
  %25 = add nuw nsw i64 %.015.i6, 1
  %exitcond.not.i11 = icmp eq i64 %25, 2
  br i1 %exitcond.not.i11, label %26, label %18

26:                                               ; preds = %21
  %27 = icmp slt i32 %24, 0
  br i1 %27, label %get_int_lsb_first.exit.thread, label %get_int_lsb_first.exit12

get_int_lsb_first.exit12:                         ; preds = %26
  %28 = getelementptr inbounds nuw i8, ptr %0, i64 64
  store i32 %13, ptr %28, align 8
  %29 = getelementptr inbounds nuw i8, ptr %0, i64 68
  store i32 %24, ptr %29, align 4
  br label %get_int_lsb_first.exit.thread

get_int_lsb_first.exit.thread:                    ; preds = %7, %18, %26, %15, %get_int_lsb_first.exit12
  ret void
}